target datalayout = "e-m:e-p270:32:32-p271:32:32-p272:64:64-i64:64-i128:128-f80:128-n8:16:32:64-S128"
target triple = "x86_64-pc-linux-gnu"

%struct._object = type { %union.anon, ptr }
%union.anon = type { i64 }
%struct.PyVarObject = type { %struct._object, i64 }
%struct._typeobject = type { %struct.PyVarObject, ptr, i64, i64, ptr, i64, ptr, ptr, ptr, ptr, ptr, ptr, ptr, ptr, ptr, ptr, ptr, ptr, ptr, i64, ptr, ptr, ptr, ptr, i64, ptr, ptr, ptr, ptr, ptr, ptr, ptr, ptr, ptr, i64, ptr, ptr, ptr, ptr, ptr, ptr, ptr, ptr, ptr, ptr, ptr, i32, ptr, ptr, i8, i16 }
%struct._PyPerf_Callbacks = type { ptr, ptr, ptr }

@_Py_NoneStruct = external global %struct._object, align 8
@PyExc_ValueError = external global ptr, align 8
@.str.89 = private unnamed_addr constant [26 x i8] c"activate_stack_trampoline\00", align 1
@.str.102 = private unnamed_addr constant [4 x i8] c"str\00", align 1
@.str.103 = private unnamed_addr constant [24 x i8] c"embedded null character\00", align 1
@.str.124 = private unnamed_addr constant [9 x i8] c"argument\00", align 1
@.str.136 = private unnamed_addr constant [5 x i8] c"perf\00", align 1
@_Py_perfmap_callbacks = external global %struct._PyPerf_Callbacks, align 8
@.str.137 = private unnamed_addr constant [31 x i8] c"can't activate perf trampoline\00", align 1
@.str.138 = private unnamed_addr constant [9 x i8] c"perf_jit\00", align 1
@_Py_perfmap_jit_callbacks = external global %struct._PyPerf_Callbacks, align 8
@.str.139 = private unnamed_addr constant [35 x i8] c"can't activate perf jit trampoline\00", align 1
@.str.140 = private unnamed_addr constant [20 x i8] c"invalid backend: %s\00", align 1

; Function Attrs: nounwind uwtable
define internal ptr @sys_activate_stack_trampoline_impl(ptr noundef %0, ptr noundef %1) #0 {
  %3 = alloca ptr, align 8
  %4 = alloca ptr, align 8
  %5 = alloca ptr, align 8
  %6 = alloca %struct._PyPerf_Callbacks, align 8
  %7 = alloca i32, align 4
  %8 = alloca %struct._PyPerf_Callbacks, align 8
  store ptr %0, ptr %4, align 8, !tbaa !9
  store ptr %1, ptr %5, align 8, !tbaa !94
  %9 = load ptr, ptr %5, align 8, !tbaa !94
  %10 = call i32 @strcmp(ptr noundef %9, ptr noundef @.str.136) #14
  %11 = icmp eq i32 %10, 0
  br i1 %11, label %12, label %47

12:                                               ; preds = %2
  call void @llvm.lifetime.start.p0(i64 24, ptr %6) #12
  call void @_PyPerfTrampoline_GetCallbacks(ptr noundef %6)
  %13 = getelementptr inbounds nuw %struct._PyPerf_Callbacks, ptr %6, i32 0, i32 1
  %14 = load ptr, ptr %13, align 8, !tbaa !310
  %15 = load ptr, ptr getelementptr inbounds nuw (%struct._PyPerf_Callbacks, ptr @_Py_perfmap_callbacks, i32 0, i32 1), align 8, !tbaa !310
  %16 = icmp ne ptr %14, %15
  br i1 %16, label %17, label %23

17:                                               ; preds = %12
  %18 = call i32 @_PyPerfTrampoline_SetCallbacks(ptr noundef @_Py_perfmap_callbacks)
  %19 = icmp slt i32 %18, 0
  br i1 %19, label %20, label %22

20:                                               ; preds = %17
  %21 = load ptr, ptr @PyExc_ValueError, align 8, !tbaa !9
  call void @PyErr_SetString(ptr noundef %21, ptr noundef @.str.137)
  store ptr null, ptr %3, align 8
  store i32 1, ptr %7, align 4
  br label %44

22:                                               ; preds = %17
  br label %43

23:                                               ; preds = %12
  %24 = load ptr, ptr %5, align 8, !tbaa !94
  %25 = call i32 @strcmp(ptr noundef %24, ptr noundef @.str.138) #14
  %26 = icmp eq i32 %25, 0
  br i1 %26, label %27, label %42

27:                                               ; preds = %23
  call void @llvm.lifetime.start.p0(i64 24, ptr %8) #12
  call void @_PyPerfTrampoline_GetCallbacks(ptr noundef %8)
  %28 = getelementptr inbounds nuw %struct._PyPerf_Callbacks, ptr %8, i32 0, i32 1
  %29 = load ptr, ptr %28, align 8, !tbaa !310
  %30 = load ptr, ptr getelementptr inbounds nuw (%struct._PyPerf_Callbacks, ptr @_Py_perfmap_jit_callbacks, i32 0, i32 1), align 8, !tbaa !310
  %31 = icmp ne ptr %29, %30
  br i1 %31, label %32, label %38

32:                                               ; preds = %27
  %33 = call i32 @_PyPerfTrampoline_SetCallbacks(ptr noundef @_Py_perfmap_jit_callbacks)
  %34 = icmp slt i32 %33, 0
  br i1 %34, label %35, label %37

35:                                               ; preds = %32
  %36 = load ptr, ptr @PyExc_ValueError, align 8, !tbaa !9
  call void @PyErr_SetString(ptr noundef %36, ptr noundef @.str.139)
  store ptr null, ptr %3, align 8
  store i32 1, ptr %7, align 4
  br label %39

37:                                               ; preds = %32
  br label %38

38:                                               ; preds = %37, %27
  store i32 0, ptr %7, align 4
  br label %39

39:                                               ; preds = %38, %35
  call void @llvm.lifetime.end.p0(i64 24, ptr %8) #12
  %40 = load i32, ptr %7, align 4
  switch i32 %40, label %44 [
    i32 0, label %41
  ]

41:                                               ; preds = %39
  br label %42

42:                                               ; preds = %41, %23
  br label %43

43:                                               ; preds = %42, %22
  store i32 0, ptr %7, align 4
  br label %44

44:                                               ; preds = %43, %39, %20
  call void @llvm.lifetime.end.p0(i64 24, ptr %6) #12
  %45 = load i32, ptr %7, align 4
  switch i32 %45, label %58 [
    i32 0, label %46
    i32 1, label %56
  ]

46:                                               ; preds = %44
  br label %51

47:                                               ; preds = %2
  %48 = load ptr, ptr @PyExc_ValueError, align 8, !tbaa !9
  %49 = load ptr, ptr %5, align 8, !tbaa !94
  %50 = call ptr (ptr, ptr, ...) @PyErr_Format(ptr noundef %48, ptr noundef @.str.140, ptr noundef %49)
  store ptr null, ptr %3, align 8
  br label %56

51:                                               ; preds = %46
  %52 = call i32 @_PyPerfTrampoline_Init(i32 noundef 1)
  %53 = icmp slt i32 %52, 0
  br i1 %53, label %54, label %55

54:                                               ; preds = %51
  store ptr null, ptr %3, align 8
  br label %56

55:                                               ; preds = %51
  store ptr @_Py_NoneStruct, ptr %3, align 8
  br label %56

56:                                               ; preds = %55, %54, %47, %44
  %57 = load ptr, ptr %3, align 8
  ret ptr %57

58:                                               ; preds = %44
  unreachable
}

; Function Attrs: inlinehint nounwind uwtable
define internal i32 @PyType_HasFeature(ptr noundef %0, i64 noundef %1) #3 {
  %3 = alloca ptr, align 8
  %4 = alloca i64, align 8
  %5 = alloca i64, align 8
  store ptr %0, ptr %3, align 8, !tbaa !203
  store i64 %1, ptr %4, align 8, !tbaa !204
  call void @llvm.lifetime.start.p0(i64 8, ptr %5) #12
  %6 = load ptr, ptr %3, align 8, !tbaa !203
  %7 = getelementptr inbounds nuw %struct._typeobject, ptr %6, i32 0, i32 19
  %8 = load i64, ptr %7, align 8, !tbaa !205
  store i64 %8, ptr %5, align 8, !tbaa !204
  %9 = load i64, ptr %5, align 8, !tbaa !204
  %10 = load i64, ptr %4, align 8, !tbaa !204
  %11 = and i64 %9, %10
  %12 = icmp ne i64 %11, 0
  %13 = zext i1 %12 to i32
  call void @llvm.lifetime.end.p0(i64 8, ptr %5) #12
  ret i32 %13
}

; Function Attrs: inlinehint nounwind uwtable
define internal ptr @_Py_TYPE(ptr noundef %0) #3 {
  %2 = alloca ptr, align 8
  store ptr %0, ptr %2, align 8, !tbaa !9
  %3 = load ptr, ptr %2, align 8, !tbaa !9
  %4 = getelementptr inbounds nuw %struct._object, ptr %3, i32 0, i32 1
  %5 = load ptr, ptr %4, align 8, !tbaa !206
  ret ptr %5
}

; Function Attrs: nounwind uwtable
define internal ptr @sys_activate_stack_trampoline(ptr noundef %0, ptr noundef %1) #0 {
  %3 = alloca ptr, align 8
  %4 = alloca ptr, align 8
  %5 = alloca ptr, align 8
  %6 = alloca ptr, align 8
  %7 = alloca i64, align 8
  store ptr %0, ptr %3, align 8, !tbaa !9
  store ptr %1, ptr %4, align 8, !tbaa !9
  call void @llvm.lifetime.start.p0(i64 8, ptr %5) #12
  store ptr null, ptr %5, align 8, !tbaa !9
  call void @llvm.lifetime.start.p0(i64 8, ptr %6) #12
  %8 = load ptr, ptr %4, align 8, !tbaa !9
  %9 = call ptr @_Py_TYPE(ptr noundef %8)
  %10 = call i32 @PyType_HasFeature(ptr noundef %9, i64 noundef 268435456)
  %11 = icmp ne i32 %10, 0
  br i1 %11, label %14, label %12

12:                                               ; preds = %2
  %13 = load ptr, ptr %4, align 8, !tbaa !9
  call void @_PyArg_BadArgument(ptr noundef @.str.89, ptr noundef @.str.124, ptr noundef @.str.102, ptr noundef %13)
  br label %31

14:                                               ; preds = %2
  %15 = load ptr, ptr %4, align 8, !tbaa !9
  %16 = call ptr @PyUnicode_AsUTF8AndSize(ptr noundef %15, ptr noundef %7)
  store ptr %16, ptr %6, align 8, !tbaa !94
  %17 = load ptr, ptr %6, align 8, !tbaa !94
  %18 = icmp eq ptr %17, null
  br i1 %18, label %19, label %20

19:                                               ; preds = %14
  br label %31

20:                                               ; preds = %14
  %21 = load ptr, ptr %6, align 8, !tbaa !94
  %22 = call i64 @strlen(ptr noundef %21) #14
  %23 = load i64, ptr %7, align 8, !tbaa !204
  %24 = icmp ne i64 %22, %23
  br i1 %24, label %25, label %27

25:                                               ; preds = %20
  %26 = load ptr, ptr @PyExc_ValueError, align 8, !tbaa !9
  call void @PyErr_SetString(ptr noundef %26, ptr noundef @.str.103)
  br label %31

27:                                               ; preds = %20
  %28 = load ptr, ptr %3, align 8, !tbaa !9
  %29 = load ptr, ptr %6, align 8, !tbaa !94
  %30 = call ptr @sys_activate_stack_trampoline_impl(ptr noundef %28, ptr noundef %29)
  store ptr %30, ptr %5, align 8, !tbaa !9
  br label %31

31:                                               ; preds = %27, %25, %19, %12
  %32 = load ptr, ptr %5, align 8, !tbaa !9
  call void @llvm.lifetime.end.p0(i64 8, ptr %6) #12
  call void @llvm.lifetime.end.p0(i64 8, ptr %5) #12
  ret ptr %32
}