; Function Attrs: nounwind uwtable
define internal ptr @sys_activate_stack_trampoline(ptr readnone captures(none) %0, ptr noundef %1) #0 {
  %3 = alloca %struct._PyPerf_Callbacks, align 8
  %4 = alloca %struct._PyPerf_Callbacks, align 8
  %5 = alloca i64, align 8
  %6 = getelementptr i8, ptr %1, i64 8
  %.val = load ptr, ptr %6, align 8, !tbaa !96
  %7 = getelementptr i8, ptr %.val, i64 168
  %.val10 = load i64, ptr %7, align 8, !tbaa !185
  %8 = and i64 %.val10, 268435456
  %.not = icmp eq i64 %8, 0
  br i1 %.not, label %9, label %10

9:                                                ; preds = %2
  tail call void @_PyArg_BadArgument(ptr noundef nonnull @.str.89, ptr noundef nonnull @.str.124, ptr noundef nonnull @.str.102, ptr noundef nonnull %1) #15
  br label %sys_activate_stack_trampoline_impl.exit

10:                                               ; preds = %2
  %11 = call ptr @PyUnicode_AsUTF8AndSize(ptr noundef nonnull %1, ptr noundef nonnull %5) #15
  %12 = icmp eq ptr %11, null
  br i1 %12, label %sys_activate_stack_trampoline_impl.exit, label %13

13:                                               ; preds = %10
  %14 = call i64 @strlen(ptr noundef nonnull dereferenceable(1) %11) #17
  %15 = load i64, ptr %5, align 8, !tbaa !267
  %.not9 = icmp eq i64 %14, %15
  br i1 %.not9, label %18, label %16

16:                                               ; preds = %13
  %17 = load ptr, ptr @PyExc_ValueError, align 8, !tbaa !93
  call void @PyErr_SetString(ptr noundef %17, ptr noundef nonnull @.str.103) #15
  br label %sys_activate_stack_trampoline_impl.exit

18:                                               ; preds = %13
  %19 = call i32 @strcmp(ptr noundef nonnull dereferenceable(1) %11, ptr noundef nonnull dereferenceable(5) @.str.136) #17
  %20 = icmp eq i32 %19, 0
  br i1 %20, label %21, label %43

21:                                               ; preds = %18
  call void @llvm.lifetime.start.p0(i64 24, ptr nonnull %3) #15
  call void @_PyPerfTrampoline_GetCallbacks(ptr noundef nonnull %3) #15
  %22 = getelementptr inbounds nuw i8, ptr %3, i64 8
  %23 = load ptr, ptr %22, align 8, !tbaa !292
  %24 = load ptr, ptr getelementptr inbounds nuw (i8, ptr @_Py_perfmap_callbacks, i64 8), align 8, !tbaa !292
  %.not.i = icmp eq ptr %23, %24
  br i1 %.not.i, label %30, label %25

25:                                               ; preds = %21
  %26 = call i32 @_PyPerfTrampoline_SetCallbacks(ptr noundef nonnull @_Py_perfmap_callbacks) #15
  %27 = icmp slt i32 %26, 0
  br i1 %27, label %28, label %46

28:                                               ; preds = %25
  %29 = load ptr, ptr @PyExc_ValueError, align 8, !tbaa !93
  call void @PyErr_SetString(ptr noundef %29, ptr noundef nonnull @.str.137) #15
  br label %42

30:                                               ; preds = %21
  %31 = call i32 @strcmp(ptr noundef nonnull dereferenceable(1) %11, ptr noundef nonnull dereferenceable(9) @.str.138) #17
  %32 = icmp eq i32 %31, 0
  br i1 %32, label %33, label %46

33:                                               ; preds = %30
  call void @llvm.lifetime.start.p0(i64 24, ptr nonnull %4) #15
  call void @_PyPerfTrampoline_GetCallbacks(ptr noundef nonnull %4) #15
  %34 = getelementptr inbounds nuw i8, ptr %4, i64 8
  %35 = load ptr, ptr %34, align 8, !tbaa !292
  %36 = load ptr, ptr getelementptr inbounds nuw (i8, ptr @_Py_perfmap_jit_callbacks, i64 8), align 8, !tbaa !292
  %.not7.i = icmp eq ptr %35, %36
  br i1 %.not7.i, label %41, label %37

37:                                               ; preds = %33
  %38 = call i32 @_PyPerfTrampoline_SetCallbacks(ptr noundef nonnull @_Py_perfmap_jit_callbacks) #15
  %39 = icmp slt i32 %38, 0
  br i1 %39, label %.critedge.i, label %41

.critedge.i:                                      ; preds = %37
  %40 = load ptr, ptr @PyExc_ValueError, align 8, !tbaa !93
  call void @PyErr_SetString(ptr noundef %40, ptr noundef nonnull @.str.139) #15
  call void @llvm.lifetime.end.p0(i64 24, ptr nonnull %4) #15
  br label %42

41:                                               ; preds = %37, %33
  call void @llvm.lifetime.end.p0(i64 24, ptr nonnull %4) #15
  br label %46

42:                                               ; preds = %.critedge.i, %28
  call void @llvm.lifetime.end.p0(i64 24, ptr nonnull %3) #15
  br label %sys_activate_stack_trampoline_impl.exit

43:                                               ; preds = %18
  %44 = load ptr, ptr @PyExc_ValueError, align 8, !tbaa !93
  %45 = call ptr (ptr, ptr, ...) @PyErr_Format(ptr noundef %44, ptr noundef nonnull @.str.140, ptr noundef nonnull %11) #15
  br label %sys_activate_stack_trampoline_impl.exit

46:                                               ; preds = %41, %30, %25
  call void @llvm.lifetime.end.p0(i64 24, ptr nonnull %3) #15
  %47 = call i32 @_PyPerfTrampoline_Init(i32 noundef 1) #15
  %48 = icmp slt i32 %47, 0
  %._Py_NoneStruct.i = select i1 %48, ptr null, ptr @_Py_NoneStruct
  br label %sys_activate_stack_trampoline_impl.exit

sys_activate_stack_trampoline_impl.exit:          ; preds = %46, %43, %42, %10, %16, %9
  %.0 = phi ptr [ null, %10 ], [ null, %16 ], [ null, %9 ], [ null, %42 ], [ null, %43 ], [ %._Py_NoneStruct.i, %46 ]
  ret ptr %.0
}